(dp0
S'GradesandRangesCode'
p1
(dp2
S'grade'
p3
ccopy_reg
_reconstructor
p4
(cpandas.core.frame
DataFrame
p5
c__builtin__
object
p6
Ntp7
Rp8
(dp9
S'_metadata'
p10
(lp11
sS'_typ'
p12
S'dataframe'
p13
sS'_data'
p14
g4
(cpandas.core.internals
BlockManager
p15
g6
Ntp16
Rp17
((lp18
cpandas.core.indexes.base
_new_Index
p19
(cpandas.core.indexes.base
Index
p20
(dp21
S'data'
p22
cnumpy.core.multiarray
_reconstruct
p23
(cnumpy
ndarray
p24
(I0
tp25
S'b'
p26
tp27
Rp28
(I1
(L5L
tp29
cnumpy
dtype
p30
(S'O8'
p31
I0
I1
tp32
Rp33
(I3
S'|'
p34
NNNI-1
I-1
I63
tp35
bI00
(lp36
S'GEmax'
p37
aS'GEmin'
p38
aS'ID'
p39
aS'policy'
p40
aS'range'
p41
atp42
bsS'name'
p43
Nstp44
Rp45
ag19
(cpandas.core.indexes.range
RangeIndex
p46
(dp47
S'start'
p48
I0
sS'step'
p49
I1
sS'stop'
p50
I2
sg43
Nstp51
Rp52
a(lp53
g23
(g24
(I0
tp54
g26
tp55
Rp56
(I1
(L3L
L2L
tp57
g30
(S'f8'
p58
I0
I1
tp59
Rp60
(I3
S'<'
p61
NNNI-1
I-1
I0
tp62
bI00
S'\x00\x00\x00\x00\x00\x00Y@\x00\x00\x00\x00\x00\xc0b@\x00\x00\x00\x00\x00\x00\xf0?\x00\x00\x00\x00\x00@Y@\x00\x00\x00\x00\x00\x004@\x00\x00\x00\x00\x00\x00$@'
p63
tp64
bag23
(g24
(I0
tp65
g26
tp66
Rp67
(I1
(L1L
L2L
tp68
g30
(S'i8'
p69
I0
I1
tp70
Rp71
(I3
S'<'
p72
NNNI-1
I-1
I0
tp73
bI00
S'\x01\x00\x00\x00\x00\x00\x00\x00\x02\x00\x00\x00\x00\x00\x00\x00'
p74
tp75
bag23
(g24
(I0
tp76
g26
tp77
Rp78
(I1
(L1L
L2L
tp79
g33
I00
(lp80
S'Policy2'
p81
aS'Base'
p82
atp83
ba(lp84
g19
(g20
(dp85
g22
g23
(g24
(I0
tp86
g26
tp87
Rp88
(I1
(L3L
tp89
g33
I00
(lp90
g37
ag38
ag41
atp91
bsg43
Nstp92
Rp93
ag19
(g20
(dp94
g22
g23
(g24
(I0
tp95
g26
tp96
Rp97
(I1
(L1L
tp98
g33
I00
(lp99
g39
atp100
bsg43
Nstp101
Rp102
ag19
(g20
(dp103
g22
g23
(g24
(I0
tp104
g26
tp105
Rp106
(I1
(L1L
tp107
g33
I00
(lp108
g40
atp109
bsg43
Nstp110
Rp111
a(dp112
S'0.14.1'
p113
(dp114
S'axes'
p115
g18
sS'blocks'
p116
(lp117
(dp118
S'mgr_locs'
p119
g23
(g24
(I0
tp120
g26
tp121
Rp122
(I1
(L3L
tp123
g71
I00
S'\x00\x00\x00\x00\x00\x00\x00\x00\x01\x00\x00\x00\x00\x00\x00\x00\x04\x00\x00\x00\x00\x00\x00\x00'
p124
tp125
bsS'values'
p126
g56
sa(dp127
g119
c__builtin__
slice
p128
(I2
I3
I1
tp129
Rp130
sg126
g67
sa(dp131
g119
g128
(I3
I4
I1
tp132
Rp133
sg126
g78
sasstp134
bsbsg41
(dp135
ssS'CompaniesCode'
p136
g4
(g5
g6
Ntp137
Rp138
(dp139
g10
(lp140
sg12
S'dataframe'
p141
sg14
g4
(g15
g6
Ntp142
Rp143
((lp144
g19
(g20
(dp145
g22
g23
(g24
(I0
tp146
g26
tp147
Rp148
(I1
(L10L
tp149
g30
(S'O8'
p150
I0
I1
tp151
Rp152
(I3
S'|'
p153
NNNI-1
I-1
I63
tp154
bI00
(lp155
S'CompanyID'
p156
aS'Industry'
p157
aS'Size'
p158
aS'ROA'
p159
aS'TotalSales1000s'
p160
aS'BaseSalaryDivTotalComp'
p161
aS'BenefitsDivBaseSalary'
p162
aS'StockOptionsDivBaseSalary'
p163
aS'BonusDivBaseSalary'
p164
aS'Description'
p165
atp166
bsg43
Nstp167
Rp168
ag19
(g46
(dp169
g48
I0
sg49
I1
sg50
I6
sg43
Nstp170
Rp171
a(lp172
g23
(g24
(I0
tp173
g26
tp174
Rp175
(I1
(L2L
L6L
tp176
g30
(S'i8'
p177
I0
I1
tp178
Rp179
(I3
S'<'
p180
NNNI-1
I-1
I0
tp181
bI00
S'\t\x00\x00\x00\x00\x00\x00\x00\x0c\x00\x00\x00\x00\x00\x00\x00\x10\x00\x00\x00\x00\x00\x00\x00\x11\x00\x00\x00\x00\x00\x00\x00\x15\x00\x00\x00\x00\x00\x00\x00\x17\x00\x00\x00\x00\x00\x00\x00\x00\x00\x00\x00\x00\x00\x00\x00\x00\x00\x00\x00\x00\x00\x00\x00\x00\x00\x00\x00\x00\x00\x00\x00\x00\x00\x00\x00\x00\x00\x00\x00\x00\x00\x00\x00\x00\x00\x00\x00\x00\x00\x00\x00\x00\x00\x00\x00'
p182
tp183
bag23
(g24
(I0
tp184
g26
tp185
Rp186
(I1
(L4L
L6L
tp187
g152
I00
(lp188
S'Semiconductors'
p189
aS'Software'
p190
ag189
aS'Financial'
p191
ag191
ag190
aS'Large'
p192
ag192
aS'Medium'
p193
aS'Small'
p194
ag194
ag194
aS'12.11'
p195
aS'5.94'
p196
aS'0.05'
p197
aS'-0.07'
p198
aS'0.02'
p199
aS'-5.99'
p200
aS'chips, boards & software'
p201
aS'data mining products'
p202
aS'digital cameras, scanners'
p203
aS'ventue capital'
p204
aS'regional bank'
p205
aS'business-to-business software'
p206
atp207
bag23
(g24
(I0
tp208
g26
tp209
Rp210
(I1
(L4L
L6L
tp211
g30
(S'f8'
p212
I0
I1
tp213
Rp214
(I3
S'<'
p215
NNNI-1
I-1
I0
tp216
bI00
S'\x8f\xc2\xf5(\\\x8f\xe2?R\xb8\x1e\x85\xebQ\xe8?H\xe1z\x14\xaeG\xe9?\n\xd7\xa3p=\n\xe7?\\\x8f\xc2\xf5(\\\xe7?\n\xd7\xa3p=\n\xe7?\xb8\x1e\x85\xebQ\xb8\xce?\xa4p=\n\xd7\xa3\xd0?R\xb8\x1e\x85\xebQ\xc8?\x00\x00\x00\x00\x00\x00\xd0?\xa4p=\n\xd7\xa3\xd0?\n\xd7\xa3p=\n\xc7?333333\xd3?{\x14\xaeG\xe1z\xa4?{\x14\xaeG\xe1z\x94?\x00\x00\x00\x00\x00\x00\x00\x00\n\xd7\xa3p=\n\xb7?R\xb8\x1e\x85\xebQ\xc8?R\xb8\x1e\x85\xebQ\xc8?{\x14\xaeG\xe1z\x94?\x9a\x99\x99\x99\x99\x99\xa9?\xecQ\xb8\x1e\x85\xeb\xc1?{\x14\xaeG\xe1z\x94?{\x14\xaeG\xe1z\x94?'
p217
tp218
ba(lp219
g19
(g20
(dp220
g22
g23
(g24
(I0
tp221
g26
tp222
Rp223
(I1
(L2L
tp224
g152
I00
(lp225
g156
ag160
atp226
bsg43
Nstp227
Rp228
ag19
(g20
(dp229
g22
g23
(g24
(I0
tp230
g26
tp231
Rp232
(I1
(L4L
tp233
g152
I00
(lp234
g157
ag158
ag159
ag165
atp235
bsg43
Nstp236
Rp237
ag19
(g20
(dp238
g22
g23
(g24
(I0
tp239
g26
tp240
Rp241
(I1
(L4L
tp242
g152
I00
(lp243
g161
ag162
ag163
ag164
atp244
bsg43
Nstp245
Rp246
a(dp247
g113
(dp248
g115
g144
sg116
(lp249
(dp250
g119
g128
(I0
I8
I4
tp251
Rp252
sg126
g175
sa(dp253
g119
g23
(g24
(I0
tp254
g26
tp255
Rp256
(I1
(L4L
tp257
g179
I00
S'\x01\x00\x00\x00\x00\x00\x00\x00\x02\x00\x00\x00\x00\x00\x00\x00\x03\x00\x00\x00\x00\x00\x00\x00\t\x00\x00\x00\x00\x00\x00\x00'
p258
tp259
bsg126
g186
sa(dp260
g119
g128
(I5
I9
I1
tp261
Rp262
sg126
g210
sasstp263
bsbsS'BenchmarkJobsCode'
p264
g4
(g5
g6
Ntp265
Rp266
(dp267
g10
(lp268
sg12
S'dataframe'
p269
sg14
g4
(g15
g6
Ntp270
Rp271
((lp272
g19
(g20
(dp273
g22
g23
(g24
(I0
tp274
g26
tp275
Rp276
(I1
(L3L
tp277
g30
(S'O8'
p278
I0
I1
tp279
Rp280
(I3
S'|'
p281
NNNI-1
I-1
I63
tp282
bI00
(lp283
S'JobID'
p284
aS'Name'
p285
aS'Description'
p286
atp287
bsg43
Nstp288
Rp289
ag19
(g46
(dp290
g48
I0
sg49
I1
sg50
I2
sg43
Nstp291
Rp292
a(lp293
g23
(g24
(I0
tp294
g26
tp295
Rp296
(I1
(L1L
L2L
tp297
g30
(S'i8'
p298
I0
I1
tp299
Rp300
(I3
S'<'
p301
NNNI-1
I-1
I0
tp302
bI00
S'\x07\x00\x00\x00\x00\x00\x00\x00\r\x00\x00\x00\x00\x00\x00\x00'
p303
tp304
bag23
(g24
(I0
tp305
g26
tp306
Rp307
(I1
(L2L
L2L
tp308
g280
I00
(lp309
S'Marketer 1'
p310
aS'Marketing Manager 2'
p311
aS"Assists in providing support for one or a few products and generating  presentations to incorporate marketing messages.  Works under general  direction dealing with less complex issues and products.  Typical  requirements are a Bachelor's degree or equivalent and up to two years of  experience."
p312
aS"Defines company's strategy for multiple product lines.  Manages the  development of product specification and requirement strategies.  Provides  presentations to senior customer management.  Typically manages 10 to 25  employees, including first level managers.  (May be from multiple disciplines.)"
p313
atp314
ba(lp315
g19
(g20
(dp316
g22
g23
(g24
(I0
tp317
g26
tp318
Rp319
(I1
(L1L
tp320
g280
I00
(lp321
g284
atp322
bsg43
Nstp323
Rp324
ag19
(g20
(dp325
g22
g23
(g24
(I0
tp326
g26
tp327
Rp328
(I1
(L2L
tp329
g280
I00
(lp330
g285
ag286
atp331
bsg43
Nstp332
Rp333
a(dp334
g113
(dp335
g115
g272
sg116
(lp336
(dp337
g119
g128
(I0
I1
I1
tp338
Rp339
sg126
g296
sa(dp340
g119
g128
(I1
I3
I1
tp341
Rp342
sg126
g307
sasstp343
bsbsS'MatchwithFastCatJobsCode'
p344
g4
(g5
g6
Ntp345
Rp346
(dp347
g10
(lp348
sg12
S'dataframe'
p349
sg14
g4
(g15
g6
Ntp350
Rp351
((lp352
g19
(g20
(dp353
g22
g23
(g24
(I0
tp354
g26
tp355
Rp356
(I1
(L4L
tp357
g30
(S'O8'
p358
I0
I1
tp359
Rp360
(I3
S'|'
p361
NNNI-1
I-1
I63
tp362
bI00
(lp363
S'JEpoint'
p364
aS'Job'
p365
aS'JobID'
p366
aS'fastCatEQ'
p367
atp368
bsg43
Nstp369
Rp370
ag19
(g46
(dp371
g48
I0
sg49
I1
sg50
I2
sg43
Nstp372
Rp373
a(lp374
g23
(g24
(I0
tp375
g26
tp376
Rp377
(I1
(L2L
L2L
tp378
g30
(S'f8'
p379
I0
I1
tp380
Rp381
(I3
S'<'
p382
NNNI-1
I-1
I0
tp383
bI00
S'\x00\x00\x00\x00\x00\x00$@\x00\x00\x00\x00\x00\x00Y@\x00\x00\x00\x00\x00\x00\x1c@\x00\x00\x00\x00\x00\x00*@'
p384
tp385
bag23
(g24
(I0
tp386
g26
tp387
Rp388
(I1
(L2L
L2L
tp389
g360
I00
(lp390
S'Marketer 1'
p391
aS'Marketing Manager 2'
p392
aS'Administrative Aide'
p393
aS'Clinical Liaison'
p394
atp395
ba(lp396
g19
(g20
(dp397
g22
g23
(g24
(I0
tp398
g26
tp399
Rp400
(I1
(L2L
tp401
g360
I00
(lp402
g364
ag366
atp403
bsg43
Nstp404
Rp405
ag19
(g20
(dp406
g22
g23
(g24
(I0
tp407
g26
tp408
Rp409
(I1
(L2L
tp410
g360
I00
(lp411
g365
ag367
atp412
bsg43
Nstp413
Rp414
a(dp415
g113
(dp416
g115
g352
sg116
(lp417
(dp418
g119
g128
(I0
I4
I2
tp419
Rp420
sg126
g377
sa(dp421
g119
g128
(I1
I5
I2
tp422
Rp423
sg126
g388
sasstp424
bsbsS'UpdateSurveyData'
p425
g4
(g5
g6
Ntp426
Rp427
(dp428
g10
(lp429
sg12
S'dataframe'
p430
sg14
g4
(g15
g6
Ntp431
Rp432
((lp433
g19
(g46
(dp434
g48
I0
sg49
I1
sg50
I1
sg43
Nstp435
Rp436
ag19
(g46
(dp437
g48
I0
sg49
I1
sg50
I1
sg43
Nstp438
Rp439
a(lp440
g23
(g24
(I0
tp441
g26
tp442
Rp443
(I1
(L1L
L1L
tp444
g30
(S'f8'
p445
I0
I1
tp446
Rp447
(I3
S'<'
p448
NNNI-1
I-1
I0
tp449
bI00
S'\x00\x00\x00\x00\x00\x00$@'
p450
tp451
ba(lp452
g19
(g46
(dp453
g48
I0
sg49
I1
sg50
I1
sg43
Nstp454
Rp455
a(dp456
g113
(dp457
g115
g433
sg116
(lp458
(dp459
g119
g128
(I0
I1
I1
tp460
Rp461
sg126
g443
sasstp462
bsbsS'PolicyLinesCode'
p463
g4
(g5
g6
Ntp464
Rp465
(dp466
g10
(lp467
sg12
S'dataframe'
p468
sg14
g4
(g15
g6
Ntp469
Rp470
((lp471
g19
(g20
(dp472
g22
g23
(g24
(I0
tp473
g26
tp474
Rp475
(I1
(L3L
tp476
g30
(S'O8'
p477
I0
I1
tp478
Rp479
(I3
S'|'
p480
NNNI-1
I-1
I63
tp481
bI00
(lp482
S'Display'
p483
aS'Name'
p484
aS'Percent'
p485
atp486
bsg43
Nstp487
Rp488
ag19
(g46
(dp489
g48
I0
sg49
I1
sg50
I2
sg43
Nstp490
Rp491
a(lp492
g23
(g24
(I0
tp493
g26
tp494
Rp495
(I1
(L1L
L2L
tp496
g30
(S'f8'
p497
I0
I1
tp498
Rp499
(I3
S'<'
p500
NNNI-1
I-1
I0
tp501
bI00
S'\x00\x00\x00\x00\x00\x00\x14@\x00\x00\x00\x00\x00\x00Y@'
p502
tp503
bag23
(g24
(I0
tp504
g26
tp505
Rp506
(I1
(L1L
L2L
tp507
g30
(S'b1'
p508
I0
I1
tp509
Rp510
(I3
S'|'
p511
NNNI-1
I-1
I0
tp512
bI00
S'\x01\x01'
p513
tp514
bag23
(g24
(I0
tp515
g26
tp516
Rp517
(I1
(L1L
L2L
tp518
g479
I00
(lp519
S'Policy1'
p520
aS'Policy2'
p521
atp522
ba(lp523
g19
(g20
(dp524
g22
g23
(g24
(I0
tp525
g26
tp526
Rp527
(I1
(L1L
tp528
g479
I00
(lp529
g485
atp530
bsg43
Nstp531
Rp532
ag19
(g20
(dp533
g22
g23
(g24
(I0
tp534
g26
tp535
Rp536
(I1
(L1L
tp537
g479
I00
(lp538
g483
atp539
bsg43
Nstp540
Rp541
ag19
(g20
(dp542
g22
g23
(g24
(I0
tp543
g26
tp544
Rp545
(I1
(L1L
tp546
g479
I00
(lp547
g484
atp548
bsg43
Nstp549
Rp550
a(dp551
g113
(dp552
g115
g471
sg116
(lp553
(dp554
g119
g128
(I2
I3
I1
tp555
Rp556
sg126
g495
sa(dp557
g119
g128
(I0
I1
I1
tp558
Rp559
sg126
g506
sa(dp560
g119
g128
(I1
I2
I1
tp561
Rp562
sg126
g517
sasstp563
bsbsS'isRange'
p564
I00
sS'CompensationMetricCode'
p565
g4
(g5
g6
Ntp566
Rp567
(dp568
g10
(lp569
sg12
S'dataframe'
p570
sg14
g4
(g15
g6
Ntp571
Rp572
((lp573
g19
(g20
(dp574
g22
g23
(g24
(I0
tp575
g26
tp576
Rp577
(I1
(L1L
tp578
g30
(S'O8'
p579
I0
I1
tp580
Rp581
(I3
S'|'
p582
NNNI-1
I-1
I63
tp583
bI00
(lp584
S'CompensationMetric'
p585
atp586
bsg43
Nstp587
Rp588
ag19
(g46
(dp589
g48
I0
sg49
I1
sg50
I1
sg43
Nstp590
Rp591
a(lp592
g23
(g24
(I0
tp593
g26
tp594
Rp595
(I1
(L1L
L1L
tp596
g581
I00
(lp597
S'BaseMean'
p598
atp599
ba(lp600
g19
(g20
(dp601
g22
g23
(g24
(I0
tp602
g26
tp603
Rp604
(I1
(L1L
tp605
g581
I00
(lp606
g585
atp607
bsg43
Nstp608
Rp609
a(dp610
g113
(dp611
g115
g573
sg116
(lp612
(dp613
g119
g128
(I0
I1
I1
tp614
Rp615
sg126
g595
sasstp616
bsbsS'last_choise'
p617
I00
s.